(i__main__
Tweet
p0
(dp1
S'content'
p2
S'LOVE'
p3
sS'username'
p4
S'@highsmithdavis'
p5
sS'hashtag'
p6
S'#thisistinner'
p7
sb.(i__main__
Tweet
p0
(dp1
S'content'
p2
S'TESTING'
p3
sS'username'
p4
S'@highsmithdavis'
p5
sS'hashtag'
p6
S'#thisistinner'
p7
sb.(i__main__
Tweet
p0
(dp1
S'content'
p2
S'LOVE123'
p3
sS'username'
p4
S'@highsmithdavis'
p5
sS'hashtag'
p6
S'#thisistinner'
p7
sb.(i__main__
Tweet
p0
(dp1
S'content'
p2
S'Love is in the air'
p3
sS'username'
p4
S'@highsmithdavis'
p5
sS'hashtag'
p6
S'#thisistinner'
p7
sb.(i__main__
Tweet
p0
(dp1
S'content'
p2
S"I'm thinking you're a headass."
p3
sS'username'
p4
S'@highsmithdavis'
p5
sS'hashtag'
p6
S'#thisistinner'
p7
sb.(i__main__
Tweet
p0
(dp1
S'content'
p2
S'Can I fix that'
p3
sS'username'
p4
S'@highsmithdavis'
p5
sS'hashtag'
p6
S'#thisistinner'
p7
sb.(i__main__
Tweet
p0
(dp1
S'content'
p2
S"I'm thinking Jacob is the best programmer alive."
p3
sS'username'
p4
S'@highsmithdavis'
p5
sS'hashtag'
p6
S'#thisistinner'
p7
sb.(i__main__
Tweet
p0
(dp1
S'content'
p2
S'Did it work?'
p3
sS'username'
p4
S'@highsmithdavis'
p5
sS'hashtag'
p6
S'#thisistinner'
p7
sb.(i__main__
Tweet
p0
(dp1
S'content'
p2
S'Hi parker'
p3
sS'username'
p4
S'@highsmithdavis'
p5
sS'hashtag'
p6
S'#thisistinner'
p7
sb.(i__main__
Tweet
p0
(dp1
S'content'
p2
S'testing'
p3
sS'username'
p4
S'@highsmithdavis'
p5
sS'hashtag'
p6
S'#thisistinner'
p7
sb.(i__main__
Tweet
p0
(dp1
S'content'
p2
S"idk bro I think cyberbullying isn't real and betsy devos is great"
p3
sS'username'
p4
S'@highsmithdavis'
p5
sS'hashtag'
p6
S'#thisistinner'
p7
sb.(i__main__
Tweet
p0
(dp1
S'content'
p2
S'I think this bitch works!'
p3
sS'username'
p4
S'@highsmithdavis'
p5
sS'hashtag'
p6
S'#thisistinner'
p7
sb.(i__main__
Tweet
p0
(dp1
S'content'
p2
S'BUH!'
p3
sS'username'
p4
S'@highsmithdavis'
p5
sS'hashtag'
p6
S'#thisistinner'
p7
sb.(i__main__
Tweet
p0
(dp1
S'content'
p2
S"I'm thinking that I'm a genius."
p3
sS'username'
p4
S'@highsmithdavis'
p5
sS'hashtag'
p6
S'#thisistinner'
p7
sb.(i__main__
Tweet
p0
(dp1
S'content'
p2
S'THIS WORKS!'
p3
sS'username'
p4
S'@highsmithdavis'
p5
sS'hashtag'
p6
S'#thisistinner'
p7
sb.